(imyutils.mvainfos
mvainfo
p0
(dp1
S'MVAname'
p2
S'BDT_VZ_Zll_BOOSTFinal_wdB'
p3
sS'weightfilepath'
p4
S'/t3home/fglessge/CMSSW_10_1_0/src//Xbb/python/weights/'
p5
sS'spectators'
p6
(lp7
sS'MVAtype'
p8
S'BDT'
p9
sS'vars'
p10
(lp11
S'FatJet_Msoftdrop[Hbb_fjidx]'
p12
aS'FatJet_Pt[Hbb_fjidx]'
p13
aS'SA5'
p14
aS'FatJet_Pt[Hbb_fjidx]/V_pt'
p15
aS'(FatJet_deepTagMD_bbvsLight[Hbb_fjidx])>0.97'
p16
aS'abs(TVector2::Phi_mpi_pi(V_phi-FatJet_phi[Hbb_fjidx]))'
p17
aS'(-99+(hJidx[0]>-1)*(99+H_mass))'
p18
aS'(-99+Alt$((hJidx[0]>-1)*(99+H_pt),0))'
p19
aS'(-99+Alt$((hJidx[0]>-1)*(99+V_pt/H_pt),0))'
p20
aS'(-99+Alt$((hJidx[0]>-1)*(99+abs(TVector2::Phi_mpi_pi(V_phi-H_phi))),0))'
p21
aS'(-99+Alt$((hJidx[0]>-1)*(99+max(hJets_0_pt_FSRrecovered,hJets_1_pt_FSRrecovered)),0))'
p22
aS'(-99+Alt$((hJidx[0]>-1)*(99+min(hJets_0_pt_FSRrecovered,hJets_1_pt_FSRrecovered)),0))'
p23
aS'(-99+Alt$((hJidx[0]>-1)*(99+hJets_FSRrecovered_dEta),0))'
p24
aS'(-99+Alt$((hJidx[0]>-1)*(99+Sum$(Jet_Pt>30&&abs(Jet_eta)<2.5&&(Jet_puId>6||Jet_Pt>50.0)&&Jet_jetId>4&&Jet_lepFilter&&Iteration$!=hJidx[0]&&Iteration$!=hJidx[1])),0))'
p25
asS'MVAsettings'
p26
S'NTrees=100:nCuts=20'
p27
sS'weightfiles'
p28
S''
p29
sS'sigs'
p30
(lp31
sS'factoryname'
p32
S'MVA'
p33
sS'factorysettings'
p34
S'!V:Color:!DrawProgressBar:AnalysisType=Classification:Transformations=I'
p35
sS'bkgs'
p36
(lp37
sS'path'
p38
S'root://t3dcachedb03.psi.ch:1094//pnfs/psi.ch/cms/trivcat/store/user/fglessge/VHbb/Zll/VHbbPostNano2017_V11/2020_06_08/boost'
p39
sS'varset'
p40
S'VZ_ZllBDTBOOSTVarsFinal_wdB'
p41
sS'comment'
p42
g29
sb.